target datalayout = "e-m:e-p270:32:32-p271:32:32-p272:64:64-i64:64-i128:128-f80:128-n8:16:32:64-S128"
target triple = "x86_64-pc-linux-gnu"

%struct.H5HF_free_section_t = type { %struct.H5FS_section_info_t, %union.anon.0 }
%struct.H5FS_section_info_t = type { i64, i64, i32, i32 }
%union.anon.0 = type { %struct.anon.2 }
%struct.anon.2 = type { %union.anon.3, i32, i32, i32, ptr, i32, i64, i32, i32, i32, ptr, i32, ptr }
%union.anon.3 = type { ptr }
%struct.anon = type { ptr, i32 }

@.str = private unnamed_addr constant [103 x i8] c"generated/home/dtcxzyw/WorkSpace/Projects/compilers/llvm-opt-benchmark/bench/hdf5/hdf5/src/H5HFspace.c\00", align 1
@H5E_HEAP_g = external global i64, align 8
@__func__.H5HF__space_revert_root_cb = private unnamed_addr constant [27 x i8] c"H5HF__space_revert_root_cb\00", align 1
@H5E_CANTDEC_g = external global i64, align 8
@.str.14 = private unnamed_addr constant [60 x i8] c"can't decrement reference count on section's indirect block\00", align 1

; Function Attrs: nounwind uwtable
define internal i32 @H5HF__space_revert_root_cb(ptr noundef %0, ptr noundef %1) #0 {
  %3 = alloca ptr, align 8
  %4 = alloca ptr, align 8
  %5 = alloca ptr, align 8
  %6 = alloca i32, align 4
  %7 = alloca i8, align 1
  store ptr %0, ptr %3, align 8
  store ptr %1, ptr %4, align 8
  %8 = load ptr, ptr %3, align 8
  store ptr %8, ptr %5, align 8
  store i32 0, ptr %6, align 4
  store i8 0, ptr %7, align 1
  %9 = load ptr, ptr %5, align 8
  %10 = getelementptr inbounds %struct.H5HF_free_section_t, ptr %9, i32 0, i32 0
  %11 = getelementptr inbounds %struct.H5FS_section_info_t, ptr %10, i32 0, i32 2
  %12 = load i32, ptr %11, align 8
  %13 = icmp eq i32 %12, 0
  br i1 %13, label %14, label %49

14:                                               ; preds = %2
  %15 = load ptr, ptr %5, align 8
  %16 = getelementptr inbounds %struct.H5HF_free_section_t, ptr %15, i32 0, i32 0
  %17 = getelementptr inbounds %struct.H5FS_section_info_t, ptr %16, i32 0, i32 3
  %18 = load i32, ptr %17, align 4
  %19 = icmp eq i32 %18, 0
  br i1 %19, label %20, label %49

20:                                               ; preds = %14
  %21 = load ptr, ptr %5, align 8
  %22 = getelementptr inbounds %struct.H5HF_free_section_t, ptr %21, i32 0, i32 1
  %23 = getelementptr inbounds %struct.anon, ptr %22, i32 0, i32 0
  %24 = load ptr, ptr %23, align 8
  %25 = call i32 @H5HF__iblock_decr(ptr noundef %24)
  %26 = icmp slt i32 %25, 0
  br i1 %26, label %27, label %42

27:                                               ; preds = %20
  br label %28

28:                                               ; preds = %27
  br label %29

29:                                               ; preds = %28
  br label %30

30:                                               ; preds = %29
  %31 = load i64, ptr @H5E_HEAP_g, align 8
  %32 = load i64, ptr @H5E_CANTDEC_g, align 8
  %33 = call i32 (ptr, ptr, i32, i64, i64, ptr, ...) @H5E_printf_stack(ptr noundef @.str, ptr noundef @__func__.H5HF__space_revert_root_cb, i32 noundef 242, i64 noundef %31, i64 noundef %32, ptr noundef @.str.14)
  br label %34

34:                                               ; preds = %30
  store i8 1, ptr %7, align 1
  %35 = load i8, ptr %7, align 1
  %36 = trunc i8 %35 to i1
  %37 = zext i1 %36 to i8
  store i8 %37, ptr %7, align 1
  br label %38

38:                                               ; preds = %34
  br label %39

39:                                               ; preds = %38
  store i32 -1, ptr %6, align 4
  br label %50

40:                                               ; No predecessors!
  br label %41

41:                                               ; preds = %40
  br label %42

42:                                               ; preds = %41, %20
  %43 = load ptr, ptr %5, align 8
  %44 = getelementptr inbounds %struct.H5HF_free_section_t, ptr %43, i32 0, i32 1
  %45 = getelementptr inbounds %struct.anon, ptr %44, i32 0, i32 0
  store ptr null, ptr %45, align 8
  %46 = load ptr, ptr %5, align 8
  %47 = getelementptr inbounds %struct.H5HF_free_section_t, ptr %46, i32 0, i32 1
  %48 = getelementptr inbounds %struct.anon, ptr %47, i32 0, i32 1
  store i32 0, ptr %48, align 8
  br label %49

49:                                               ; preds = %42, %14, %2
  br label %50

50:                                               ; preds = %49, %39
  %51 = load i32, ptr %6, align 4
  ret i32 %51
}