; Function Attrs: nounwind uwtable
define internal range(i32 -1, 1) i32 @H5HF__space_revert_root_cb(ptr nocapture noundef %0, ptr nocapture readnone %1) #0 {
  %3 = getelementptr inbounds i8, ptr %0, i64 16
  %4 = load i32, ptr %3, align 8
  %5 = icmp eq i32 %4, 0
  br i1 %5, label %6, label %21

6:                                                ; preds = %2
  %7 = getelementptr inbounds i8, ptr %0, i64 20
  %8 = load i32, ptr %7, align 4
  %9 = icmp eq i32 %8, 0
  br i1 %9, label %10, label %21

10:                                               ; preds = %6
  %11 = getelementptr inbounds i8, ptr %0, i64 24
  %12 = load ptr, ptr %11, align 8
  %13 = tail call i32 @H5HF__iblock_decr(ptr noundef %12) #4
  %14 = icmp slt i32 %13, 0
  br i1 %14, label %15, label %19

15:                                               ; preds = %10
  %16 = load i64, ptr @H5E_HEAP_g, align 8
  %17 = load i64, ptr @H5E_CANTDEC_g, align 8
  %18 = tail call i32 (ptr, ptr, i32, i64, i64, ptr, ...) @H5E_printf_stack(ptr noundef nonnull @.str, ptr noundef nonnull @__func__.H5HF__space_revert_root_cb, i32 noundef 242, i64 noundef %16, i64 noundef %17, ptr noundef nonnull @.str.14) #4
  br label %21

19:                                               ; preds = %10
  store ptr null, ptr %11, align 8
  %20 = getelementptr inbounds i8, ptr %0, i64 32
  store i32 0, ptr %20, align 8
  br label %21

21:                                               ; preds = %2, %6, %19, %15
  %.0 = phi i32 [ -1, %15 ], [ 0, %19 ], [ 0, %6 ], [ 0, %2 ]
  ret i32 %.0
}